target datalayout = "e-m:e-p270:32:32-p271:32:32-p272:64:64-i64:64-i128:128-f80:128-n8:16:32:64-S128"
target triple = "x86_64-pc-linux-gnu"

%"class.(anonymous namespace)::elim_uncnstr_tactic" = type { %class.tactic.base, ptr, %class.ref, %class.obj_hashtable, %class.obj_hashtable, %class.scoped_ptr, i32, i64, i32, %class.params_ref }
%class.tactic.base = type <{ %"class.user_propagator::core", i32 }>
%"class.user_propagator::core" = type { ptr }
%class.ref = type { ptr }
%class.obj_hashtable = type { %class.core_hashtable.base, [4 x i8] }
%class.core_hashtable.base = type <{ ptr, i32, i32, i32 }>
%class.scoped_ptr = type { ptr }
%class.params_ref = type { ptr }
%class.core_hashtable = type <{ ptr, i32, i32, i32, [4 x i8] }>
%class.obj_hash_entry = type { ptr }

; Function Attrs: mustprogress nounwind uwtable
define linkonce_odr hidden void @_ZNSt12_Destroy_auxILb1EE9__destroyIP14obj_hash_entryI4exprEEEvT_S6_(ptr noundef %0, ptr noundef %1) #6 comdat align 2 {
  %3 = alloca ptr, align 8
  %4 = alloca ptr, align 8
  store ptr %0, ptr %3, align 8, !tbaa !118
  store ptr %1, ptr %4, align 8, !tbaa !118
  ret void
}

; Function Attrs: inlinehint mustprogress nounwind uwtable
define linkonce_odr hidden void @_ZN14obj_hash_entryI4exprEC2Ev(ptr noundef nonnull align 8 dereferenceable(8) %0) unnamed_addr #5 comdat align 2 {
  %2 = alloca ptr, align 8
  store ptr %0, ptr %2, align 8, !tbaa !118
  %3 = load ptr, ptr %2, align 8
  %4 = getelementptr inbounds nuw %class.obj_hash_entry, ptr %3, i32 0, i32 0
  store ptr null, ptr %4, align 8, !tbaa !121
  ret void
}

; Function Attrs: inlinehint mustprogress nounwind uwtable
define linkonce_odr hidden void @_ZSt9__advanceIP14obj_hash_entryI4exprElEvRT_T0_St26random_access_iterator_tag(ptr noundef nonnull align 8 dereferenceable(8) %0, i64 noundef %1) #5 comdat {
  %3 = alloca ptr, align 8
  %4 = alloca i64, align 8
  store ptr %0, ptr %3, align 8, !tbaa !123
  store i64 %1, ptr %4, align 8, !tbaa !91
  %5 = load i64, ptr %4, align 8, !tbaa !91
  %6 = call i1 @llvm.is.constant.i64(i64 %5)
  br i1 %6, label %7, label %14

7:                                                ; preds = %2
  %8 = load i64, ptr %4, align 8, !tbaa !91
  %9 = icmp eq i64 %8, 1
  br i1 %9, label %10, label %14

10:                                               ; preds = %7
  %11 = load ptr, ptr %3, align 8, !tbaa !123
  %12 = load ptr, ptr %11, align 8, !tbaa !118
  %13 = getelementptr inbounds nuw %class.obj_hash_entry, ptr %12, i32 1
  store ptr %13, ptr %11, align 8, !tbaa !118
  br label %30

14:                                               ; preds = %7, %2
  %15 = load i64, ptr %4, align 8, !tbaa !91
  %16 = call i1 @llvm.is.constant.i64(i64 %15)
  br i1 %16, label %17, label %24

17:                                               ; preds = %14
  %18 = load i64, ptr %4, align 8, !tbaa !91
  %19 = icmp eq i64 %18, -1
  br i1 %19, label %20, label %24

20:                                               ; preds = %17
  %21 = load ptr, ptr %3, align 8, !tbaa !123
  %22 = load ptr, ptr %21, align 8, !tbaa !118
  %23 = getelementptr inbounds %class.obj_hash_entry, ptr %22, i32 -1
  store ptr %23, ptr %21, align 8, !tbaa !118
  br label %29

24:                                               ; preds = %17, %14
  %25 = load i64, ptr %4, align 8, !tbaa !91
  %26 = load ptr, ptr %3, align 8, !tbaa !123
  %27 = load ptr, ptr %26, align 8, !tbaa !118
  %28 = getelementptr inbounds %class.obj_hash_entry, ptr %27, i64 %25
  store ptr %28, ptr %26, align 8, !tbaa !118
  br label %29

29:                                               ; preds = %24, %20
  br label %30

30:                                               ; preds = %29, %10
  ret void
}

; Function Attrs: inlinehint mustprogress nounwind uwtable
define linkonce_odr hidden void @_ZSt19__iterator_categoryIP14obj_hash_entryI4exprEENSt15iterator_traitsIT_E17iterator_categoryERKS5_(ptr noundef nonnull align 8 dereferenceable(8) %0) #5 comdat {
  %2 = alloca ptr, align 8
  store ptr %0, ptr %2, align 8, !tbaa !123
  ret void
}

; Function Attrs: noinline noreturn nounwind uwtable
define linkonce_odr hidden void @__clang_call_terminate(ptr noundef %0) #12 comdat {
  %2 = call ptr @__cxa_begin_catch(ptr %0) #3
  call void @_ZSt9terminatev() #20
  unreachable
}

; Function Attrs: inlinehint mustprogress uwtable
define linkonce_odr hidden void @_ZSt8_DestroyIP14obj_hash_entryI4exprEEvT_S4_(ptr noundef %0, ptr noundef %1) #10 comdat {
  %3 = alloca ptr, align 8
  %4 = alloca ptr, align 8
  store ptr %0, ptr %3, align 8, !tbaa !118
  store ptr %1, ptr %4, align 8, !tbaa !118
  %5 = load ptr, ptr %3, align 8, !tbaa !118
  %6 = load ptr, ptr %4, align 8, !tbaa !118
  call void @_ZNSt12_Destroy_auxILb1EE9__destroyIP14obj_hash_entryI4exprEEEvT_S6_(ptr noundef %5, ptr noundef %6)
  ret void
}

; Function Attrs: inlinehint mustprogress nounwind uwtable
define linkonce_odr hidden void @_ZSt18_Construct_novalueI14obj_hash_entryI4exprEEvPT_(ptr noundef %0) #5 comdat {
  %2 = alloca ptr, align 8
  store ptr %0, ptr %2, align 8, !tbaa !118
  %3 = load ptr, ptr %2, align 8, !tbaa !118
  call void @_ZN14obj_hash_entryI4exprEC2Ev(ptr noundef nonnull align 8 dereferenceable(8) %3) #3
  ret void
}

; Function Attrs: inlinehint mustprogress uwtable
define linkonce_odr hidden void @_ZSt7advanceIP14obj_hash_entryI4exprEjEvRT_T0_(ptr noundef nonnull align 8 dereferenceable(8) %0, i32 noundef %1) #10 comdat {
  %3 = alloca ptr, align 8
  %4 = alloca i32, align 4
  %5 = alloca i64, align 8
  store ptr %0, ptr %3, align 8, !tbaa !123
  store i32 %1, ptr %4, align 4, !tbaa !37
  call void @llvm.lifetime.start.p0(i64 8, ptr %5) #3
  %6 = load i32, ptr %4, align 4, !tbaa !37
  %7 = zext i32 %6 to i64
  store i64 %7, ptr %5, align 8, !tbaa !91
  %8 = load ptr, ptr %3, align 8, !tbaa !123
  %9 = load i64, ptr %5, align 8, !tbaa !91
  %10 = load ptr, ptr %3, align 8, !tbaa !123
  call void @_ZSt19__iterator_categoryIP14obj_hash_entryI4exprEENSt15iterator_traitsIT_E17iterator_categoryERKS5_(ptr noundef nonnull align 8 dereferenceable(8) %10)
  call void @_ZSt9__advanceIP14obj_hash_entryI4exprElEvRT_T0_St26random_access_iterator_tag(ptr noundef nonnull align 8 dereferenceable(8) %8, i64 noundef %9)
  call void @llvm.lifetime.end.p0(i64 8, ptr %5) #3
  ret void
}

; Function Attrs: mustprogress uwtable
define linkonce_odr hidden noundef ptr @_ZNSt35__uninitialized_default_novalue_n_1ILb0EE26__uninit_default_novalue_nIP14obj_hash_entryI4exprEjEET_S6_T0_(ptr noundef %0, i32 noundef %1) #4 comdat align 2 personality ptr @__gxx_personality_v0 {
  %3 = alloca ptr, align 8
  %4 = alloca i32, align 4
  %5 = alloca ptr, align 8
  %6 = alloca ptr, align 8
  %7 = alloca i32, align 4
  store ptr %0, ptr %3, align 8, !tbaa !118
  store i32 %1, ptr %4, align 4, !tbaa !37
  call void @llvm.lifetime.start.p0(i64 8, ptr %5) #3
  %8 = load ptr, ptr %3, align 8, !tbaa !118
  store ptr %8, ptr %5, align 8, !tbaa !118
  br label %9

9:                                                ; preds = %15, %2
  %10 = load i32, ptr %4, align 4, !tbaa !37
  %11 = icmp ugt i32 %10, 0
  br i1 %11, label %12, label %30

12:                                               ; preds = %9
  %13 = load ptr, ptr %5, align 8, !tbaa !118
  invoke void @_ZSt18_Construct_novalueI14obj_hash_entryI4exprEEvPT_(ptr noundef %13)
          to label %14 unwind label %20

14:                                               ; preds = %12
  br label %15

15:                                               ; preds = %14
  %16 = load i32, ptr %4, align 4, !tbaa !37
  %17 = add i32 %16, -1
  store i32 %17, ptr %4, align 4, !tbaa !37
  %18 = load ptr, ptr %5, align 8, !tbaa !118
  %19 = getelementptr inbounds nuw %class.obj_hash_entry, ptr %18, i32 1
  store ptr %19, ptr %5, align 8, !tbaa !118
  br label %9, !llvm.loop !119

20:                                               ; preds = %12
  %21 = landingpad { ptr, i32 }
          catch ptr null
  %22 = extractvalue { ptr, i32 } %21, 0
  store ptr %22, ptr %6, align 8
  %23 = extractvalue { ptr, i32 } %21, 1
  store i32 %23, ptr %7, align 4
  br label %24

24:                                               ; preds = %20
  %25 = load ptr, ptr %6, align 8
  %26 = call ptr @__cxa_begin_catch(ptr %25) #3
  %27 = load ptr, ptr %3, align 8, !tbaa !118
  %28 = load ptr, ptr %5, align 8, !tbaa !118
  invoke void @_ZSt8_DestroyIP14obj_hash_entryI4exprEEvT_S4_(ptr noundef %27, ptr noundef %28)
          to label %29 unwind label %32

29:                                               ; preds = %24
  invoke void @__cxa_rethrow() #22
          to label %46 unwind label %32

30:                                               ; preds = %9
  %31 = load ptr, ptr %5, align 8, !tbaa !118
  call void @llvm.lifetime.end.p0(i64 8, ptr %5) #3
  ret ptr %31

32:                                               ; preds = %29, %24
  %33 = landingpad { ptr, i32 }
          cleanup
  %34 = extractvalue { ptr, i32 } %33, 0
  store ptr %34, ptr %6, align 8
  %35 = extractvalue { ptr, i32 } %33, 1
  store i32 %35, ptr %7, align 4
  invoke void @__cxa_end_catch()
          to label %36 unwind label %43

36:                                               ; preds = %32
  call void @llvm.lifetime.end.p0(i64 8, ptr %5) #3
  br label %38

37:                                               ; No predecessors!
  unreachable

38:                                               ; preds = %36
  %39 = load ptr, ptr %6, align 8
  %40 = load i32, ptr %7, align 4
  %41 = insertvalue { ptr, i32 } poison, ptr %39, 0
  %42 = insertvalue { ptr, i32 } %41, i32 %40, 1
  resume { ptr, i32 } %42

43:                                               ; preds = %32
  %44 = landingpad { ptr, i32 }
          catch ptr null
  %45 = extractvalue { ptr, i32 } %44, 0
  call void @__clang_call_terminate(ptr %45) #20
  unreachable

46:                                               ; preds = %29
  unreachable
}

; Function Attrs: mustprogress uwtable
define linkonce_odr hidden noundef ptr @_ZNSt14_Destroy_n_auxILb1EE11__destroy_nIP14obj_hash_entryI4exprEjEET_S6_T0_(ptr noundef %0, i32 noundef %1) #4 comdat align 2 {
  %3 = alloca ptr, align 8
  %4 = alloca i32, align 4
  store ptr %0, ptr %3, align 8, !tbaa !118
  store i32 %1, ptr %4, align 4, !tbaa !37
  %5 = load i32, ptr %4, align 4, !tbaa !37
  call void @_ZSt7advanceIP14obj_hash_entryI4exprEjEvRT_T0_(ptr noundef nonnull align 8 dereferenceable(8) %3, i32 noundef %5)
  %6 = load ptr, ptr %3, align 8, !tbaa !118
  ret ptr %6
}

; Function Attrs: inlinehint mustprogress uwtable
define linkonce_odr hidden noundef ptr @_ZSt33__uninitialized_default_novalue_nIP14obj_hash_entryI4exprEjET_S4_T0_(ptr noundef %0, i32 noundef %1) #10 comdat {
  %3 = alloca ptr, align 8
  %4 = alloca i32, align 4
  store ptr %0, ptr %3, align 8, !tbaa !118
  store i32 %1, ptr %4, align 4, !tbaa !37
  %5 = load ptr, ptr %3, align 8, !tbaa !118
  %6 = load i32, ptr %4, align 4, !tbaa !37
  %7 = call noundef ptr @_ZNSt35__uninitialized_default_novalue_n_1ILb0EE26__uninit_default_novalue_nIP14obj_hash_entryI4exprEjEET_S6_T0_(ptr noundef %5, i32 noundef %6)
  ret ptr %7
}

; Function Attrs: inlinehint mustprogress uwtable
define linkonce_odr hidden noundef ptr @_ZSt10_Destroy_nIP14obj_hash_entryI4exprEjET_S4_T0_(ptr noundef %0, i32 noundef %1) #10 comdat {
  %3 = alloca ptr, align 8
  %4 = alloca i32, align 4
  store ptr %0, ptr %3, align 8, !tbaa !118
  store i32 %1, ptr %4, align 4, !tbaa !37
  %5 = load ptr, ptr %3, align 8, !tbaa !118
  %6 = load i32, ptr %4, align 4, !tbaa !37
  %7 = call noundef ptr @_ZNSt14_Destroy_n_auxILb1EE11__destroy_nIP14obj_hash_entryI4exprEjEET_S6_T0_(ptr noundef %5, i32 noundef %6)
  ret ptr %7
}

; Function Attrs: inlinehint mustprogress uwtable
define linkonce_odr hidden noundef ptr @_ZSt33uninitialized_default_construct_nIP14obj_hash_entryI4exprEjET_S4_T0_(ptr noundef %0, i32 noundef %1) #10 comdat {
  %3 = alloca ptr, align 8
  %4 = alloca i32, align 4
  store ptr %0, ptr %3, align 8, !tbaa !118
  store i32 %1, ptr %4, align 4, !tbaa !37
  %5 = load ptr, ptr %3, align 8, !tbaa !118
  %6 = load i32, ptr %4, align 4, !tbaa !37
  %7 = call noundef ptr @_ZSt33__uninitialized_default_novalue_nIP14obj_hash_entryI4exprEjET_S4_T0_(ptr noundef %5, i32 noundef %6)
  ret ptr %7
}

; Function Attrs: inlinehint mustprogress uwtable
define linkonce_odr hidden noundef ptr @_ZSt9destroy_nIP14obj_hash_entryI4exprEjET_S4_T0_(ptr noundef %0, i32 noundef %1) #10 comdat {
  %3 = alloca ptr, align 8
  %4 = alloca i32, align 4
  store ptr %0, ptr %3, align 8, !tbaa !118
  store i32 %1, ptr %4, align 4, !tbaa !37
  %5 = load ptr, ptr %3, align 8, !tbaa !118
  %6 = load i32, ptr %4, align 4, !tbaa !37
  %7 = call noundef ptr @_ZSt10_Destroy_nIP14obj_hash_entryI4exprEjET_S4_T0_(ptr noundef %5, i32 noundef %6)
  ret ptr %7
}

; Function Attrs: mustprogress uwtable
define linkonce_odr hidden noalias noundef ptr @_Z10alloc_vectI14obj_hash_entryI4exprEEPT_j(i32 noundef %0) #4 comdat {
  %2 = alloca i32, align 4
  %3 = alloca ptr, align 8
  store i32 %0, ptr %2, align 4, !tbaa !37
  call void @llvm.lifetime.start.p0(i64 8, ptr %3) #3
  %4 = load i32, ptr %2, align 4, !tbaa !37
  %5 = zext i32 %4 to i64
  %6 = mul i64 8, %5
  %7 = call noalias noundef ptr @_ZN6memory8allocateEm(i64 noundef %6)
  store ptr %7, ptr %3, align 8, !tbaa !118
  %8 = load ptr, ptr %3, align 8, !tbaa !118
  %9 = load i32, ptr %2, align 4, !tbaa !37
  %10 = call noundef ptr @_ZSt33uninitialized_default_construct_nIP14obj_hash_entryI4exprEjET_S4_T0_(ptr noundef %8, i32 noundef %9)
  %11 = load ptr, ptr %3, align 8, !tbaa !118
  call void @llvm.lifetime.end.p0(i64 8, ptr %3) #3
  ret ptr %11
}

; Function Attrs: mustprogress uwtable
define linkonce_odr hidden void @_Z12dealloc_vectI14obj_hash_entryI4exprEEvPT_j(ptr noundef %0, i32 noundef %1) #4 comdat {
  %3 = alloca ptr, align 8
  %4 = alloca i32, align 4
  store ptr %0, ptr %3, align 8, !tbaa !118
  store i32 %1, ptr %4, align 4, !tbaa !37
  %5 = load ptr, ptr %3, align 8, !tbaa !118
  %6 = icmp eq ptr %5, null
  br i1 %6, label %7, label %8

7:                                                ; preds = %2
  br label %13

8:                                                ; preds = %2
  %9 = load ptr, ptr %3, align 8, !tbaa !118
  %10 = load i32, ptr %4, align 4, !tbaa !37
  %11 = call noundef ptr @_ZSt9destroy_nIP14obj_hash_entryI4exprEjET_S4_T0_(ptr noundef %9, i32 noundef %10)
  %12 = load ptr, ptr %3, align 8, !tbaa !118
  call void @_ZN6memory10deallocateEPv(ptr noundef %12)
  br label %13

13:                                               ; preds = %8, %7
  ret void
}

; Function Attrs: mustprogress uwtable
define linkonce_odr hidden noundef ptr @_ZN14core_hashtableI14obj_hash_entryI4exprE12obj_ptr_hashIS1_E6ptr_eqIS1_EE11alloc_tableEj(ptr noundef nonnull align 8 dereferenceable(20) %0, i32 noundef %1) #4 comdat align 2 {
  %3 = alloca ptr, align 8
  %4 = alloca i32, align 4
  %5 = alloca ptr, align 8
  store ptr %0, ptr %3, align 8, !tbaa !42
  store i32 %1, ptr %4, align 4, !tbaa !37
  call void @llvm.lifetime.start.p0(i64 8, ptr %5) #3
  %6 = load i32, ptr %4, align 4, !tbaa !37
  %7 = call noalias noundef ptr @_Z10alloc_vectI14obj_hash_entryI4exprEEPT_j(i32 noundef %6)
  store ptr %7, ptr %5, align 8, !tbaa !118
  %8 = load ptr, ptr %5, align 8, !tbaa !118
  call void @llvm.lifetime.end.p0(i64 8, ptr %5) #3
  ret ptr %8
}

; Function Attrs: mustprogress uwtable
define linkonce_odr hidden void @_ZN14core_hashtableI14obj_hash_entryI4exprE12obj_ptr_hashIS1_E6ptr_eqIS1_EE12delete_tableEv(ptr noundef nonnull align 8 dereferenceable(20) %0) #4 comdat align 2 {
  %2 = alloca ptr, align 8
  store ptr %0, ptr %2, align 8, !tbaa !42
  %3 = load ptr, ptr %2, align 8
  %4 = getelementptr inbounds nuw %class.core_hashtable, ptr %3, i32 0, i32 0
  %5 = load ptr, ptr %4, align 8, !tbaa !114
  %6 = getelementptr inbounds nuw %class.core_hashtable, ptr %3, i32 0, i32 1
  %7 = load i32, ptr %6, align 8, !tbaa !115
  call void @_Z12dealloc_vectI14obj_hash_entryI4exprEEvPT_j(ptr noundef %5, i32 noundef %7)
  %8 = getelementptr inbounds nuw %class.core_hashtable, ptr %3, i32 0, i32 0
  store ptr null, ptr %8, align 8, !tbaa !114
  ret void
}

; Function Attrs: mustprogress nounwind uwtable
define linkonce_odr hidden void @_ZN14obj_hash_entryI4exprE12mark_as_freeEv(ptr noundef nonnull align 8 dereferenceable(8) %0) #6 comdat align 2 {
  %2 = alloca ptr, align 8
  store ptr %0, ptr %2, align 8, !tbaa !118
  %3 = load ptr, ptr %2, align 8
  %4 = getelementptr inbounds nuw %class.obj_hash_entry, ptr %3, i32 0, i32 0
  store ptr null, ptr %4, align 8, !tbaa !121
  ret void
}

; Function Attrs: mustprogress nounwind uwtable
define linkonce_odr hidden noundef zeroext i1 @_ZNK14obj_hash_entryI4exprE7is_freeEv(ptr noundef nonnull align 8 dereferenceable(8) %0) #6 comdat align 2 {
  %2 = alloca ptr, align 8
  store ptr %0, ptr %2, align 8, !tbaa !118
  %3 = load ptr, ptr %2, align 8
  %4 = getelementptr inbounds nuw %class.obj_hash_entry, ptr %3, i32 0, i32 0
  %5 = load ptr, ptr %4, align 8, !tbaa !121
  %6 = icmp eq ptr %5, null
  ret i1 %6
}

; Function Attrs: mustprogress uwtable
define linkonce_odr hidden void @_ZN14core_hashtableI14obj_hash_entryI4exprE12obj_ptr_hashIS1_E6ptr_eqIS1_EE5resetEv(ptr noundef nonnull align 8 dereferenceable(20) %0) #4 comdat align 2 {
  %2 = alloca ptr, align 8
  %3 = alloca i32, align 4
  %4 = alloca ptr, align 8
  %5 = alloca ptr, align 8
  store ptr %0, ptr %2, align 8, !tbaa !42
  %6 = load ptr, ptr %2, align 8
  %7 = getelementptr inbounds nuw %class.core_hashtable, ptr %6, i32 0, i32 2
  %8 = load i32, ptr %7, align 4, !tbaa !116
  %9 = icmp eq i32 %8, 0
  br i1 %9, label %10, label %15

10:                                               ; preds = %1
  %11 = getelementptr inbounds nuw %class.core_hashtable, ptr %6, i32 0, i32 3
  %12 = load i32, ptr %11, align 8, !tbaa !117
  %13 = icmp eq i32 %12, 0
  br i1 %13, label %14, label %15

14:                                               ; preds = %10
  br label %63

15:                                               ; preds = %10, %1
  call void @llvm.lifetime.start.p0(i64 4, ptr %3) #3
  store i32 0, ptr %3, align 4, !tbaa !37
  call void @llvm.lifetime.start.p0(i64 8, ptr %4) #3
  %16 = getelementptr inbounds nuw %class.core_hashtable, ptr %6, i32 0, i32 0
  %17 = load ptr, ptr %16, align 8, !tbaa !114
  store ptr %17, ptr %4, align 8, !tbaa !118
  call void @llvm.lifetime.start.p0(i64 8, ptr %5) #3
  %18 = getelementptr inbounds nuw %class.core_hashtable, ptr %6, i32 0, i32 0
  %19 = load ptr, ptr %18, align 8, !tbaa !114
  %20 = getelementptr inbounds nuw %class.core_hashtable, ptr %6, i32 0, i32 1
  %21 = load i32, ptr %20, align 8, !tbaa !115
  %22 = zext i32 %21 to i64
  %23 = getelementptr inbounds nuw %class.obj_hash_entry, ptr %19, i64 %22
  store ptr %23, ptr %5, align 8, !tbaa !118
  br label %24

24:                                               ; preds = %37, %15
  %25 = load ptr, ptr %4, align 8, !tbaa !118
  %26 = load ptr, ptr %5, align 8, !tbaa !118
  %27 = icmp ne ptr %25, %26
  br i1 %27, label %28, label %40

28:                                               ; preds = %24
  %29 = load ptr, ptr %4, align 8, !tbaa !118
  %30 = call noundef zeroext i1 @_ZNK14obj_hash_entryI4exprE7is_freeEv(ptr noundef nonnull align 8 dereferenceable(8) %29)
  br i1 %30, label %33, label %31

31:                                               ; preds = %28
  %32 = load ptr, ptr %4, align 8, !tbaa !118
  call void @_ZN14obj_hash_entryI4exprE12mark_as_freeEv(ptr noundef nonnull align 8 dereferenceable(8) %32)
  br label %36

33:                                               ; preds = %28
  %34 = load i32, ptr %3, align 4, !tbaa !37
  %35 = add i32 %34, 1
  store i32 %35, ptr %3, align 4, !tbaa !37
  br label %36

36:                                               ; preds = %33, %31
  br label %37

37:                                               ; preds = %36
  %38 = load ptr, ptr %4, align 8, !tbaa !118
  %39 = getelementptr inbounds nuw %class.obj_hash_entry, ptr %38, i32 1
  store ptr %39, ptr %4, align 8, !tbaa !118
  br label %24, !llvm.loop !141

40:                                               ; preds = %24
  %41 = getelementptr inbounds nuw %class.core_hashtable, ptr %6, i32 0, i32 1
  %42 = load i32, ptr %41, align 8, !tbaa !115
  %43 = icmp ugt i32 %42, 16
  br i1 %43, label %44, label %60

44:                                               ; preds = %40
  %45 = load i32, ptr %3, align 4, !tbaa !37
  %46 = shl i32 %45, 2
  %47 = getelementptr inbounds nuw %class.core_hashtable, ptr %6, i32 0, i32 1
  %48 = load i32, ptr %47, align 8, !tbaa !115
  %49 = mul i32 %48, 3
  %50 = icmp ugt i32 %46, %49
  br i1 %50, label %51, label %60

51:                                               ; preds = %44
  call void @_ZN14core_hashtableI14obj_hash_entryI4exprE12obj_ptr_hashIS1_E6ptr_eqIS1_EE12delete_tableEv(ptr noundef nonnull align 8 dereferenceable(20) %6)
  %52 = getelementptr inbounds nuw %class.core_hashtable, ptr %6, i32 0, i32 1
  %53 = load i32, ptr %52, align 8, !tbaa !115
  %54 = lshr i32 %53, 1
  %55 = getelementptr inbounds nuw %class.core_hashtable, ptr %6, i32 0, i32 1
  store i32 %54, ptr %55, align 8, !tbaa !115
  %56 = getelementptr inbounds nuw %class.core_hashtable, ptr %6, i32 0, i32 1
  %57 = load i32, ptr %56, align 8, !tbaa !115
  %58 = call noundef ptr @_ZN14core_hashtableI14obj_hash_entryI4exprE12obj_ptr_hashIS1_E6ptr_eqIS1_EE11alloc_tableEj(ptr noundef nonnull align 8 dereferenceable(20) %6, i32 noundef %57)
  %59 = getelementptr inbounds nuw %class.core_hashtable, ptr %6, i32 0, i32 0
  store ptr %58, ptr %59, align 8, !tbaa !114
  br label %60

60:                                               ; preds = %51, %44, %40
  %61 = getelementptr inbounds nuw %class.core_hashtable, ptr %6, i32 0, i32 2
  store i32 0, ptr %61, align 4, !tbaa !116
  %62 = getelementptr inbounds nuw %class.core_hashtable, ptr %6, i32 0, i32 3
  store i32 0, ptr %62, align 8, !tbaa !117
  call void @llvm.lifetime.end.p0(i64 8, ptr %5) #3
  call void @llvm.lifetime.end.p0(i64 8, ptr %4) #3
  call void @llvm.lifetime.end.p0(i64 4, ptr %3) #3
  br label %63

63:                                               ; preds = %60, %14
  ret void
}

; Function Attrs: mustprogress uwtable
define internal void @_ZN12_GLOBAL__N_119elim_uncnstr_tactic20user_propagate_clearEv(ptr noundef nonnull align 8 dereferenceable(120) %0) unnamed_addr #4 align 2 {
  %2 = alloca ptr, align 8
  store ptr %0, ptr %2, align 8, !tbaa !10
  %3 = load ptr, ptr %2, align 8
  %4 = getelementptr inbounds nuw %"class.(anonymous namespace)::elim_uncnstr_tactic", ptr %3, i32 0, i32 4
  call void @_ZN14core_hashtableI14obj_hash_entryI4exprE12obj_ptr_hashIS1_E6ptr_eqIS1_EE5resetEv(ptr noundef nonnull align 8 dereferenceable(20) %4)
  ret void
}