; Function Attrs: mustprogress uwtable
define internal void @_ZN12_GLOBAL__N_119elim_uncnstr_tactic20user_propagate_clearEv(ptr noundef nonnull align 8 captures(none) dereferenceable(120) %0) unnamed_addr #3 align 2 personality ptr @__gxx_personality_v0 {
  %2 = getelementptr inbounds nuw i8, ptr %0, i64 56
  %3 = getelementptr inbounds nuw i8, ptr %0, i64 68
  %4 = load i32, ptr %3, align 4, !tbaa !24
  %5 = icmp eq i32 %4, 0
  %6 = getelementptr inbounds nuw i8, ptr %0, i64 72
  %7 = load i32, ptr %6, align 8
  %8 = icmp eq i32 %7, 0
  %or.cond.i = select i1 %5, i1 %8, i1 false
  br i1 %or.cond.i, label %_ZN14core_hashtableI14obj_hash_entryI4exprE12obj_ptr_hashIS1_E6ptr_eqIS1_EE5resetEv.exit, label %9

9:                                                ; preds = %1
  %10 = load ptr, ptr %2, align 8, !tbaa !20
  %11 = getelementptr inbounds nuw i8, ptr %0, i64 64
  %12 = load i32, ptr %11, align 8, !tbaa !23
  %13 = zext i32 %12 to i64
  %14 = getelementptr inbounds nuw %class.obj_hash_entry, ptr %10, i64 %13
  %.not11.i = icmp eq i32 %12, 0
  br i1 %.not11.i, label %._crit_edge.thread.i, label %.lr.ph.i

.lr.ph.i:                                         ; preds = %9, %20
  %.013.i = phi i32 [ %.1.i, %20 ], [ 0, %9 ]
  %.0712.i = phi ptr [ %21, %20 ], [ %10, %9 ]
  %15 = load ptr, ptr %.0712.i, align 8, !tbaa !17
  %16 = icmp eq ptr %15, null
  br i1 %16, label %18, label %17

17:                                               ; preds = %.lr.ph.i
  store ptr null, ptr %.0712.i, align 8, !tbaa !17
  br label %20

18:                                               ; preds = %.lr.ph.i
  %19 = add i32 %.013.i, 1
  br label %20

20:                                               ; preds = %18, %17
  %.1.i = phi i32 [ %19, %18 ], [ %.013.i, %17 ]
  %21 = getelementptr inbounds nuw i8, ptr %.0712.i, i64 8
  %.not.i = icmp eq ptr %21, %14
  br i1 %.not.i, label %._crit_edge.i, label %.lr.ph.i, !llvm.loop !45

._crit_edge.i:                                    ; preds = %20
  %22 = shl i32 %.1.i, 2
  %23 = icmp ugt i32 %12, 16
  %24 = mul i32 %12, 3
  %25 = icmp ugt i32 %22, %24
  %or.cond16.i = select i1 %23, i1 %25, i1 false
  br i1 %or.cond16.i, label %26, label %._crit_edge.thread.i

26:                                               ; preds = %._crit_edge.i
  %27 = icmp eq ptr %10, null
  br i1 %27, label %_ZN14core_hashtableI14obj_hash_entryI4exprE12obj_ptr_hashIS1_E6ptr_eqIS1_EE12delete_tableEv.exit.i, label %28

28:                                               ; preds = %26
  tail call void @_ZN6memory10deallocateEPv(ptr noundef nonnull %10)
  %.pre.i = load i32, ptr %11, align 8, !tbaa !23
  br label %_ZN14core_hashtableI14obj_hash_entryI4exprE12obj_ptr_hashIS1_E6ptr_eqIS1_EE12delete_tableEv.exit.i

_ZN14core_hashtableI14obj_hash_entryI4exprE12obj_ptr_hashIS1_E6ptr_eqIS1_EE12delete_tableEv.exit.i: ; preds = %28, %26
  %29 = phi i32 [ %12, %26 ], [ %.pre.i, %28 ]
  store ptr null, ptr %2, align 8, !tbaa !20
  %30 = lshr i32 %29, 1
  store i32 %30, ptr %11, align 8, !tbaa !23
  %31 = zext nneg i32 %30 to i64
  %32 = shl nuw nsw i64 %31, 3
  %33 = tail call noalias noundef ptr @_ZN6memory8allocateEm(i64 noundef %32)
  %.not6.i.i.i.i.i.i = icmp ult i32 %29, 2
  br i1 %.not6.i.i.i.i.i.i, label %_ZN14core_hashtableI14obj_hash_entryI4exprE12obj_ptr_hashIS1_E6ptr_eqIS1_EE11alloc_tableEj.exit.i, label %.lr.ph.preheader.i.i.i.i.i.i

.lr.ph.preheader.i.i.i.i.i.i:                     ; preds = %_ZN14core_hashtableI14obj_hash_entryI4exprE12obj_ptr_hashIS1_E6ptr_eqIS1_EE12delete_tableEv.exit.i
  tail call void @llvm.memset.p0.i64(ptr align 8 %33, i8 0, i64 %32, i1 false), !tbaa !17
  br label %_ZN14core_hashtableI14obj_hash_entryI4exprE12obj_ptr_hashIS1_E6ptr_eqIS1_EE11alloc_tableEj.exit.i

_ZN14core_hashtableI14obj_hash_entryI4exprE12obj_ptr_hashIS1_E6ptr_eqIS1_EE11alloc_tableEj.exit.i: ; preds = %.lr.ph.preheader.i.i.i.i.i.i, %_ZN14core_hashtableI14obj_hash_entryI4exprE12obj_ptr_hashIS1_E6ptr_eqIS1_EE12delete_tableEv.exit.i
  store ptr %33, ptr %2, align 8, !tbaa !20
  br label %._crit_edge.thread.i

._crit_edge.thread.i:                             ; preds = %_ZN14core_hashtableI14obj_hash_entryI4exprE12obj_ptr_hashIS1_E6ptr_eqIS1_EE11alloc_tableEj.exit.i, %._crit_edge.i, %9
  store i32 0, ptr %3, align 4, !tbaa !24
  store i32 0, ptr %6, align 8, !tbaa !25
  br label %_ZN14core_hashtableI14obj_hash_entryI4exprE12obj_ptr_hashIS1_E6ptr_eqIS1_EE5resetEv.exit

_ZN14core_hashtableI14obj_hash_entryI4exprE12obj_ptr_hashIS1_E6ptr_eqIS1_EE5resetEv.exit: ; preds = %1, %._crit_edge.thread.i
  ret void
}